target datalayout = "e-m:e-p270:32:32-p271:32:32-p272:64:64-i64:64-i128:128-f80:128-n8:16:32:64-S128"
target triple = "x86_64-pc-linux-gnu"

%struct.expert_field = type { i32, i32 }

@hf_r3_peekpoke_operation = internal global i32 0, align 4
@hf_r3_peekpoke_address = internal global i32 0, align 4
@hf_r3_peekpoke_length = internal global i32 0, align 4
@hf_r3_peekpoke_poke8 = internal global i32 0, align 4
@hf_r3_peekpoke_poke16 = internal global i32 0, align 4
@hf_r3_peekpoke_poke24 = internal global i32 0, align 4
@hf_r3_peekpoke_poke32 = internal global i32 0, align 4
@hf_r3_peekpoke_pokestring = internal global i32 0, align 4
@ett_r3peekpoke = internal global i32 0, align 4
@ei_r3_peekpoke_operation = internal global %struct.expert_field zeroinitializer, align 4
@.str.1860 = private unnamed_addr constant [29 x i8] c"%s:%u: failed assertion \22%s\22\00", align 1
@.str.1861 = private unnamed_addr constant [33 x i8] c"epan/dissectors/packet-assa_r3.c\00", align 1
@.str.1862 = private unnamed_addr constant [18 x i8] c"start_offset == 0\00", align 1
@.str.2109 = private unnamed_addr constant [1 x i8] zeroinitializer, align 1
@.str.2110 = private unnamed_addr constant [32 x i8] c"Read (8 Bits @ 0x%04x = 0x%02x)\00", align 1
@.str.2111 = private unnamed_addr constant [33 x i8] c"Read (16 Bits @ 0x%04x = 0x%04x)\00", align 1
@.str.2112 = private unnamed_addr constant [33 x i8] c"Read (24 Bits @ 0x%04x = 0x%06x)\00", align 1
@.str.2113 = private unnamed_addr constant [33 x i8] c"Read (32 Bits @ 0x%04x = 0x%08x)\00", align 1
@.str.2114 = private unnamed_addr constant [25 x i8] c"Read (%u Bytes @ 0x%04x)\00", align 1

; Function Attrs: null_pointer_is_valid sspstrong uwtable
define internal void @dissect_r3_upstreammfgfield_peekpoke(ptr noundef %0, i32 noundef %1, i32 noundef %2, ptr noundef %3, ptr noundef %4) #0 {
  %6 = alloca ptr, align 8
  %7 = alloca i32, align 4
  %8 = alloca i32, align 4
  %9 = alloca ptr, align 8
  %10 = alloca ptr, align 8
  %11 = alloca i32, align 4
  %12 = alloca i32, align 4
  %13 = alloca ptr, align 8
  %14 = alloca ptr, align 8
  %15 = alloca ptr, align 8
  %16 = alloca i32, align 4
  store ptr %0, ptr %6, align 8
  store i32 %1, ptr %7, align 4
  store i32 %2, ptr %8, align 4
  store ptr %3, ptr %9, align 8
  store ptr %4, ptr %10, align 8
  call void @llvm.lifetime.start.p0(i64 4, ptr %11) #5
  call void @llvm.lifetime.start.p0(i64 4, ptr %12) #5
  %17 = load i32, ptr %7, align 4
  %18 = icmp eq i32 %17, 0
  br i1 %18, label %19, label %20

19:                                               ; preds = %5
  br label %22

20:                                               ; preds = %5
  call void (ptr, ...) @proto_report_dissector_bug(ptr noundef @.str.1860, ptr noundef @.str.1861, i32 noundef 4589, ptr noundef @.str.1862) #6
  unreachable

21:                                               ; No predecessors!
  br label %22

22:                                               ; preds = %21, %19
  %23 = load ptr, ptr %6, align 8
  %24 = call i32 @tvb_reported_length_remaining(ptr noundef %23, i32 noundef 0)
  store i32 %24, ptr %12, align 4
  store i32 0, ptr %11, align 4
  br label %25

25:                                               ; preds = %206, %22
  %26 = load i32, ptr %11, align 4
  %27 = load i32, ptr %12, align 4
  %28 = icmp slt i32 %26, %27
  br i1 %28, label %29, label %209

29:                                               ; preds = %25
  call void @llvm.lifetime.start.p0(i64 8, ptr %13) #5
  call void @llvm.lifetime.start.p0(i64 8, ptr %14) #5
  call void @llvm.lifetime.start.p0(i64 8, ptr %15) #5
  %30 = load ptr, ptr %10, align 8
  %31 = load ptr, ptr %6, align 8
  %32 = load i32, ptr %11, align 4
  %33 = load i32, ptr @ett_r3peekpoke, align 4
  %34 = call ptr @proto_tree_add_subtree(ptr noundef %30, ptr noundef %31, i32 noundef %32, i32 noundef 3, i32 noundef %33, ptr noundef %13, ptr noundef @.str.2109)
  store ptr %34, ptr %15, align 8
  %35 = load ptr, ptr %15, align 8
  %36 = load i32, ptr @hf_r3_peekpoke_operation, align 4
  %37 = load ptr, ptr %6, align 8
  %38 = load i32, ptr %11, align 4
  %39 = add i32 %38, 0
  %40 = call ptr @proto_tree_add_item(ptr noundef %35, i32 noundef %36, ptr noundef %37, i32 noundef %39, i32 noundef 1, i32 noundef -2147483648)
  store ptr %40, ptr %14, align 8
  %41 = load ptr, ptr %15, align 8
  %42 = load i32, ptr @hf_r3_peekpoke_address, align 4
  %43 = load ptr, ptr %6, align 8
  %44 = load i32, ptr %11, align 4
  %45 = add i32 %44, 1
  %46 = call ptr @proto_tree_add_item(ptr noundef %41, i32 noundef %42, ptr noundef %43, i32 noundef %45, i32 noundef 2, i32 noundef -2147483648)
  %47 = load ptr, ptr %6, align 8
  %48 = load i32, ptr %11, align 4
  %49 = add i32 %48, 0
  %50 = call zeroext i8 @tvb_get_uint8(ptr noundef %47, i32 noundef %49)
  %51 = zext i8 %50 to i32
  switch i32 %51, label %198 [
    i32 0, label %52
    i32 1, label %77
    i32 2, label %102
    i32 3, label %126
    i32 4, label %150
  ]

52:                                               ; preds = %29
  %53 = load ptr, ptr %15, align 8
  %54 = icmp ne ptr %53, null
  br i1 %54, label %55, label %74

55:                                               ; preds = %52
  %56 = load ptr, ptr %13, align 8
  %57 = load ptr, ptr %6, align 8
  %58 = load i32, ptr %11, align 4
  %59 = add i32 %58, 1
  %60 = call zeroext i16 @tvb_get_letohs(ptr noundef %57, i32 noundef %59)
  %61 = zext i16 %60 to i32
  %62 = load ptr, ptr %6, align 8
  %63 = load i32, ptr %11, align 4
  %64 = add i32 %63, 3
  %65 = call zeroext i8 @tvb_get_uint8(ptr noundef %62, i32 noundef %64)
  %66 = zext i8 %65 to i32
  call void (ptr, ptr, ...) @proto_item_append_text(ptr noundef %56, ptr noundef @.str.2110, i32 noundef %61, i32 noundef %66)
  %67 = load ptr, ptr %13, align 8
  call void @proto_item_set_len(ptr noundef %67, i32 noundef 4)
  %68 = load ptr, ptr %15, align 8
  %69 = load i32, ptr @hf_r3_peekpoke_poke8, align 4
  %70 = load ptr, ptr %6, align 8
  %71 = load i32, ptr %11, align 4
  %72 = add i32 %71, 3
  %73 = call ptr @proto_tree_add_item(ptr noundef %68, i32 noundef %69, ptr noundef %70, i32 noundef %72, i32 noundef 1, i32 noundef -2147483648)
  br label %74

74:                                               ; preds = %55, %52
  %75 = load i32, ptr %11, align 4
  %76 = add i32 %75, 1
  store i32 %76, ptr %11, align 4
  br label %202

77:                                               ; preds = %29
  %78 = load ptr, ptr %15, align 8
  %79 = icmp ne ptr %78, null
  br i1 %79, label %80, label %99

80:                                               ; preds = %77
  %81 = load ptr, ptr %13, align 8
  %82 = load ptr, ptr %6, align 8
  %83 = load i32, ptr %11, align 4
  %84 = add i32 %83, 1
  %85 = call zeroext i16 @tvb_get_letohs(ptr noundef %82, i32 noundef %84)
  %86 = zext i16 %85 to i32
  %87 = load ptr, ptr %6, align 8
  %88 = load i32, ptr %11, align 4
  %89 = add i32 %88, 3
  %90 = call zeroext i16 @tvb_get_letohs(ptr noundef %87, i32 noundef %89)
  %91 = zext i16 %90 to i32
  call void (ptr, ptr, ...) @proto_item_append_text(ptr noundef %81, ptr noundef @.str.2111, i32 noundef %86, i32 noundef %91)
  %92 = load ptr, ptr %13, align 8
  call void @proto_item_set_len(ptr noundef %92, i32 noundef 5)
  %93 = load ptr, ptr %15, align 8
  %94 = load i32, ptr @hf_r3_peekpoke_poke16, align 4
  %95 = load ptr, ptr %6, align 8
  %96 = load i32, ptr %11, align 4
  %97 = add i32 %96, 3
  %98 = call ptr @proto_tree_add_item(ptr noundef %93, i32 noundef %94, ptr noundef %95, i32 noundef %97, i32 noundef 2, i32 noundef -2147483648)
  br label %99

99:                                               ; preds = %80, %77
  %100 = load i32, ptr %11, align 4
  %101 = add i32 %100, 2
  store i32 %101, ptr %11, align 4
  br label %202

102:                                              ; preds = %29
  %103 = load ptr, ptr %15, align 8
  %104 = icmp ne ptr %103, null
  br i1 %104, label %105, label %123

105:                                              ; preds = %102
  %106 = load ptr, ptr %13, align 8
  %107 = load ptr, ptr %6, align 8
  %108 = load i32, ptr %11, align 4
  %109 = add i32 %108, 1
  %110 = call zeroext i16 @tvb_get_letohs(ptr noundef %107, i32 noundef %109)
  %111 = zext i16 %110 to i32
  %112 = load ptr, ptr %6, align 8
  %113 = load i32, ptr %11, align 4
  %114 = add i32 %113, 3
  %115 = call i32 @tvb_get_letoh24(ptr noundef %112, i32 noundef %114)
  call void (ptr, ptr, ...) @proto_item_append_text(ptr noundef %106, ptr noundef @.str.2112, i32 noundef %111, i32 noundef %115)
  %116 = load ptr, ptr %13, align 8
  call void @proto_item_set_len(ptr noundef %116, i32 noundef 6)
  %117 = load ptr, ptr %15, align 8
  %118 = load i32, ptr @hf_r3_peekpoke_poke24, align 4
  %119 = load ptr, ptr %6, align 8
  %120 = load i32, ptr %11, align 4
  %121 = add i32 %120, 3
  %122 = call ptr @proto_tree_add_item(ptr noundef %117, i32 noundef %118, ptr noundef %119, i32 noundef %121, i32 noundef 3, i32 noundef -2147483648)
  br label %123

123:                                              ; preds = %105, %102
  %124 = load i32, ptr %11, align 4
  %125 = add i32 %124, 3
  store i32 %125, ptr %11, align 4
  br label %202

126:                                              ; preds = %29
  %127 = load ptr, ptr %15, align 8
  %128 = icmp ne ptr %127, null
  br i1 %128, label %129, label %147

129:                                              ; preds = %126
  %130 = load ptr, ptr %13, align 8
  %131 = load ptr, ptr %6, align 8
  %132 = load i32, ptr %11, align 4
  %133 = add i32 %132, 1
  %134 = call zeroext i16 @tvb_get_letohs(ptr noundef %131, i32 noundef %133)
  %135 = zext i16 %134 to i32
  %136 = load ptr, ptr %6, align 8
  %137 = load i32, ptr %11, align 4
  %138 = add i32 %137, 3
  %139 = call i32 @tvb_get_letohl(ptr noundef %136, i32 noundef %138)
  call void (ptr, ptr, ...) @proto_item_append_text(ptr noundef %130, ptr noundef @.str.2113, i32 noundef %135, i32 noundef %139)
  %140 = load ptr, ptr %13, align 8
  call void @proto_item_set_len(ptr noundef %140, i32 noundef 7)
  %141 = load ptr, ptr %15, align 8
  %142 = load i32, ptr @hf_r3_peekpoke_poke32, align 4
  %143 = load ptr, ptr %6, align 8
  %144 = load i32, ptr %11, align 4
  %145 = add i32 %144, 3
  %146 = call ptr @proto_tree_add_item(ptr noundef %141, i32 noundef %142, ptr noundef %143, i32 noundef %145, i32 noundef 4, i32 noundef -2147483648)
  br label %147

147:                                              ; preds = %129, %126
  %148 = load i32, ptr %11, align 4
  %149 = add i32 %148, 4
  store i32 %149, ptr %11, align 4
  br label %202

150:                                              ; preds = %29
  %151 = load ptr, ptr %15, align 8
  %152 = icmp ne ptr %151, null
  br i1 %152, label %153, label %189

153:                                              ; preds = %150
  %154 = load ptr, ptr %13, align 8
  %155 = load ptr, ptr %6, align 8
  %156 = load i32, ptr %11, align 4
  %157 = add i32 %156, 3
  %158 = call zeroext i8 @tvb_get_uint8(ptr noundef %155, i32 noundef %157)
  %159 = zext i8 %158 to i32
  %160 = load ptr, ptr %6, align 8
  %161 = load i32, ptr %11, align 4
  %162 = add i32 %161, 1
  %163 = call zeroext i16 @tvb_get_letohs(ptr noundef %160, i32 noundef %162)
  %164 = zext i16 %163 to i32
  call void (ptr, ptr, ...) @proto_item_append_text(ptr noundef %154, ptr noundef @.str.2114, i32 noundef %159, i32 noundef %164)
  %165 = load ptr, ptr %13, align 8
  %166 = load ptr, ptr %6, align 8
  %167 = load i32, ptr %11, align 4
  %168 = add i32 %167, 3
  %169 = call zeroext i8 @tvb_get_uint8(ptr noundef %166, i32 noundef %168)
  %170 = zext i8 %169 to i32
  %171 = add i32 4, %170
  call void @proto_item_set_len(ptr noundef %165, i32 noundef %171)
  %172 = load ptr, ptr %15, align 8
  %173 = load i32, ptr @hf_r3_peekpoke_length, align 4
  %174 = load ptr, ptr %6, align 8
  %175 = load i32, ptr %11, align 4
  %176 = add i32 %175, 3
  %177 = call ptr @proto_tree_add_item(ptr noundef %172, i32 noundef %173, ptr noundef %174, i32 noundef %176, i32 noundef 1, i32 noundef -2147483648)
  %178 = load ptr, ptr %15, align 8
  %179 = load i32, ptr @hf_r3_peekpoke_pokestring, align 4
  %180 = load ptr, ptr %6, align 8
  %181 = load i32, ptr %11, align 4
  %182 = add i32 %181, 4
  %183 = load ptr, ptr %6, align 8
  %184 = load i32, ptr %11, align 4
  %185 = add i32 %184, 3
  %186 = call zeroext i8 @tvb_get_uint8(ptr noundef %183, i32 noundef %185)
  %187 = zext i8 %186 to i32
  %188 = call ptr @proto_tree_add_item(ptr noundef %178, i32 noundef %179, ptr noundef %180, i32 noundef %182, i32 noundef %187, i32 noundef 0)
  br label %189

189:                                              ; preds = %153, %150
  %190 = load ptr, ptr %6, align 8
  %191 = load i32, ptr %11, align 4
  %192 = add i32 %191, 3
  %193 = call zeroext i8 @tvb_get_uint8(ptr noundef %190, i32 noundef %192)
  %194 = zext i8 %193 to i32
  %195 = add i32 %194, 1
  %196 = load i32, ptr %11, align 4
  %197 = add i32 %196, %195
  store i32 %197, ptr %11, align 4
  br label %202

198:                                              ; preds = %29
  %199 = load ptr, ptr %9, align 8
  %200 = load ptr, ptr %14, align 8
  %201 = call ptr @expert_add_info(ptr noundef %199, ptr noundef %200, ptr noundef @ei_r3_peekpoke_operation)
  store i32 1, ptr %16, align 4
  br label %203

202:                                              ; preds = %189, %147, %123, %99, %74
  store i32 0, ptr %16, align 4
  br label %203

203:                                              ; preds = %202, %198
  call void @llvm.lifetime.end.p0(i64 8, ptr %15) #5
  call void @llvm.lifetime.end.p0(i64 8, ptr %14) #5
  call void @llvm.lifetime.end.p0(i64 8, ptr %13) #5
  %204 = load i32, ptr %16, align 4
  switch i32 %204, label %210 [
    i32 0, label %205
  ]

205:                                              ; preds = %203
  br label %206

206:                                              ; preds = %205
  %207 = load i32, ptr %11, align 4
  %208 = add i32 %207, 3
  store i32 %208, ptr %11, align 4
  br label %25, !llvm.loop !24

209:                                              ; preds = %25
  store i32 0, ptr %16, align 4
  br label %210

210:                                              ; preds = %209, %203
  call void @llvm.lifetime.end.p0(i64 4, ptr %12) #5
  call void @llvm.lifetime.end.p0(i64 4, ptr %11) #5
  %211 = load i32, ptr %16, align 4
  switch i32 %211, label %213 [
    i32 0, label %212
    i32 1, label %212
  ]

212:                                              ; preds = %210, %210
  ret void

213:                                              ; preds = %210
  unreachable
}