; Function Attrs: null_pointer_is_valid sspstrong uwtable
define internal void @dissect_r3_upstreammfgfield_peekpoke(ptr noundef %0, i32 noundef %1, i32 %2, ptr noundef %3, ptr noundef %4) #0 {
  %6 = alloca ptr, align 8
  %7 = icmp eq i32 %1, 0
  br i1 %7, label %9, label %8

8:                                                ; preds = %5
  tail call void (ptr, ...) @proto_report_dissector_bug(ptr noundef nonnull @.str.1860, ptr noundef nonnull @.str.1861, i32 noundef 4589, ptr noundef nonnull @.str.1862) #6
  unreachable

9:                                                ; preds = %5
  %10 = tail call i32 @tvb_reported_length_remaining(ptr noundef %0, i32 noundef 0)
  %11 = icmp sgt i32 %10, 0
  br i1 %11, label %.lr.ph, label %.loopexit

.lr.ph:                                           ; preds = %9, %91
  %.07283 = phi i32 [ %92, %91 ], [ 0, %9 ]
  call void @llvm.lifetime.start.p0(i64 8, ptr nonnull %6) #5
  %12 = load i32, ptr @ett_r3peekpoke, align 4
  %13 = call ptr @proto_tree_add_subtree(ptr noundef %4, ptr noundef %0, i32 noundef %.07283, i32 noundef 3, i32 noundef %12, ptr noundef nonnull %6, ptr noundef nonnull @.str.2109)
  %14 = load i32, ptr @hf_r3_peekpoke_operation, align 4
  %15 = call ptr @proto_tree_add_item(ptr noundef %13, i32 noundef %14, ptr noundef %0, i32 noundef %.07283, i32 noundef 1, i32 noundef -2147483648)
  %16 = load i32, ptr @hf_r3_peekpoke_address, align 4
  %17 = add nsw i32 %.07283, 1
  %18 = call ptr @proto_tree_add_item(ptr noundef %13, i32 noundef %16, ptr noundef %0, i32 noundef %17, i32 noundef 2, i32 noundef -2147483648)
  %19 = call zeroext i8 @tvb_get_uint8(ptr noundef %0, i32 noundef %.07283)
  switch i8 %19, label %89 [
    i8 0, label %20
    i8 1, label %31
    i8 2, label %44
    i8 3, label %54
    i8 4, label %66
  ]

20:                                               ; preds = %.lr.ph
  %.not79 = icmp eq ptr %13, null
  br i1 %.not79, label %91, label %21

21:                                               ; preds = %20
  %22 = load ptr, ptr %6, align 8
  %23 = call zeroext i16 @tvb_get_letohs(ptr noundef %0, i32 noundef %17)
  %24 = zext i16 %23 to i32
  %25 = add i32 %.07283, 3
  %26 = call zeroext i8 @tvb_get_uint8(ptr noundef %0, i32 noundef %25)
  %27 = zext i8 %26 to i32
  call void (ptr, ptr, ...) @proto_item_append_text(ptr noundef %22, ptr noundef nonnull @.str.2110, i32 noundef %24, i32 noundef %27)
  %28 = load ptr, ptr %6, align 8
  call void @proto_item_set_len(ptr noundef %28, i32 noundef 4)
  %29 = load i32, ptr @hf_r3_peekpoke_poke8, align 4
  %30 = call ptr @proto_tree_add_item(ptr noundef nonnull %13, i32 noundef %29, ptr noundef %0, i32 noundef %25, i32 noundef 1, i32 noundef -2147483648)
  br label %91

31:                                               ; preds = %.lr.ph
  %.not78 = icmp eq ptr %13, null
  br i1 %.not78, label %42, label %32

32:                                               ; preds = %31
  %33 = load ptr, ptr %6, align 8
  %34 = call zeroext i16 @tvb_get_letohs(ptr noundef %0, i32 noundef %17)
  %35 = zext i16 %34 to i32
  %36 = add i32 %.07283, 3
  %37 = call zeroext i16 @tvb_get_letohs(ptr noundef %0, i32 noundef %36)
  %38 = zext i16 %37 to i32
  call void (ptr, ptr, ...) @proto_item_append_text(ptr noundef %33, ptr noundef nonnull @.str.2111, i32 noundef %35, i32 noundef %38)
  %39 = load ptr, ptr %6, align 8
  call void @proto_item_set_len(ptr noundef %39, i32 noundef 5)
  %40 = load i32, ptr @hf_r3_peekpoke_poke16, align 4
  %41 = call ptr @proto_tree_add_item(ptr noundef nonnull %13, i32 noundef %40, ptr noundef %0, i32 noundef %36, i32 noundef 2, i32 noundef -2147483648)
  br label %42

42:                                               ; preds = %32, %31
  %43 = add i32 %.07283, 2
  br label %91

44:                                               ; preds = %.lr.ph
  %.not77 = icmp eq ptr %13, null
  br i1 %.not77, label %._crit_edge85, label %45

._crit_edge85:                                    ; preds = %44
  %.pre = add i32 %.07283, 3
  br label %91

45:                                               ; preds = %44
  %46 = load ptr, ptr %6, align 8
  %47 = call zeroext i16 @tvb_get_letohs(ptr noundef %0, i32 noundef %17)
  %48 = zext i16 %47 to i32
  %49 = add i32 %.07283, 3
  %50 = call i32 @tvb_get_letoh24(ptr noundef %0, i32 noundef %49)
  call void (ptr, ptr, ...) @proto_item_append_text(ptr noundef %46, ptr noundef nonnull @.str.2112, i32 noundef %48, i32 noundef %50)
  %51 = load ptr, ptr %6, align 8
  call void @proto_item_set_len(ptr noundef %51, i32 noundef 6)
  %52 = load i32, ptr @hf_r3_peekpoke_poke24, align 4
  %53 = call ptr @proto_tree_add_item(ptr noundef nonnull %13, i32 noundef %52, ptr noundef %0, i32 noundef %49, i32 noundef 3, i32 noundef -2147483648)
  br label %91

54:                                               ; preds = %.lr.ph
  %.not76 = icmp eq ptr %13, null
  br i1 %.not76, label %64, label %55

55:                                               ; preds = %54
  %56 = load ptr, ptr %6, align 8
  %57 = call zeroext i16 @tvb_get_letohs(ptr noundef %0, i32 noundef %17)
  %58 = zext i16 %57 to i32
  %59 = add i32 %.07283, 3
  %60 = call i32 @tvb_get_letohl(ptr noundef %0, i32 noundef %59)
  call void (ptr, ptr, ...) @proto_item_append_text(ptr noundef %56, ptr noundef nonnull @.str.2113, i32 noundef %58, i32 noundef %60)
  %61 = load ptr, ptr %6, align 8
  call void @proto_item_set_len(ptr noundef %61, i32 noundef 7)
  %62 = load i32, ptr @hf_r3_peekpoke_poke32, align 4
  %63 = call ptr @proto_tree_add_item(ptr noundef nonnull %13, i32 noundef %62, ptr noundef %0, i32 noundef %59, i32 noundef 4, i32 noundef -2147483648)
  br label %64

64:                                               ; preds = %55, %54
  %65 = add i32 %.07283, 4
  br label %91

66:                                               ; preds = %.lr.ph
  %.not = icmp eq ptr %13, null
  br i1 %.not, label %._crit_edge, label %67

._crit_edge:                                      ; preds = %66
  %.pre86 = add i32 %.07283, 3
  br label %85

67:                                               ; preds = %66
  %68 = load ptr, ptr %6, align 8
  %69 = add i32 %.07283, 3
  %70 = call zeroext i8 @tvb_get_uint8(ptr noundef %0, i32 noundef %69)
  %71 = zext i8 %70 to i32
  %72 = call zeroext i16 @tvb_get_letohs(ptr noundef %0, i32 noundef %17)
  %73 = zext i16 %72 to i32
  call void (ptr, ptr, ...) @proto_item_append_text(ptr noundef %68, ptr noundef nonnull @.str.2114, i32 noundef %71, i32 noundef %73)
  %74 = load ptr, ptr %6, align 8
  %75 = call zeroext i8 @tvb_get_uint8(ptr noundef %0, i32 noundef %69)
  %76 = zext i8 %75 to i32
  %77 = add nuw nsw i32 %76, 4
  call void @proto_item_set_len(ptr noundef %74, i32 noundef %77)
  %78 = load i32, ptr @hf_r3_peekpoke_length, align 4
  %79 = call ptr @proto_tree_add_item(ptr noundef nonnull %13, i32 noundef %78, ptr noundef %0, i32 noundef %69, i32 noundef 1, i32 noundef -2147483648)
  %80 = load i32, ptr @hf_r3_peekpoke_pokestring, align 4
  %81 = add i32 %.07283, 4
  %82 = call zeroext i8 @tvb_get_uint8(ptr noundef %0, i32 noundef %69)
  %83 = zext i8 %82 to i32
  %84 = call ptr @proto_tree_add_item(ptr noundef nonnull %13, i32 noundef %80, ptr noundef %0, i32 noundef %81, i32 noundef %83, i32 noundef 0)
  br label %85

85:                                               ; preds = %._crit_edge, %67
  %.pre-phi87 = phi i32 [ %.pre86, %._crit_edge ], [ %69, %67 ]
  %86 = call zeroext i8 @tvb_get_uint8(ptr noundef %0, i32 noundef %.pre-phi87)
  %87 = zext i8 %86 to i32
  %88 = add i32 %17, %87
  br label %91

89:                                               ; preds = %.lr.ph
  %90 = call ptr @expert_add_info(ptr noundef %3, ptr noundef %15, ptr noundef nonnull @ei_r3_peekpoke_operation)
  call void @llvm.lifetime.end.p0(i64 8, ptr nonnull %6) #5
  br label %.loopexit

91:                                               ; preds = %45, %._crit_edge85, %20, %21, %85, %64, %42
  %.2.ph = phi i32 [ %17, %20 ], [ %17, %21 ], [ %43, %42 ], [ %65, %64 ], [ %88, %85 ], [ %.pre, %._crit_edge85 ], [ %49, %45 ]
  call void @llvm.lifetime.end.p0(i64 8, ptr nonnull %6) #5
  %92 = add i32 %.2.ph, 3
  %93 = icmp slt i32 %92, %10
  br i1 %93, label %.lr.ph, label %.loopexit, !llvm.loop !23

.loopexit:                                        ; preds = %91, %9, %89
  ret void
}